target datalayout = "e-m:e-p270:32:32-p271:32:32-p272:64:64-i64:64-i128:128-f80:128-n8:16:32:64-S128"
target triple = "x86_64-pc-linux-gnu"

%struct.timespec = type { i64, i64 }

@s_Times = internal global [3 x i64] zeroinitializer, align 16

; Function Attrs: inlinehint nounwind uwtable
define internal i64 @Abc_Clock() #2 {
  %1 = alloca i64, align 8
  %2 = alloca %struct.timespec, align 8
  %3 = alloca i32, align 4
  %4 = alloca i64, align 8
  call void @llvm.lifetime.start.p0(i64 16, ptr %2) #9
  %5 = call i32 @clock_gettime(i32 noundef 1, ptr noundef %2) #9
  %6 = icmp slt i32 %5, 0
  br i1 %6, label %7, label %8

7:                                                ; preds = %0
  store i64 -1, ptr %1, align 8
  store i32 1, ptr %3, align 4
  br label %19

8:                                                ; preds = %0
  call void @llvm.lifetime.start.p0(i64 8, ptr %4) #9
  %9 = getelementptr inbounds nuw %struct.timespec, ptr %2, i32 0, i32 0
  %10 = load i64, ptr %9, align 8, !tbaa !136
  %11 = mul nsw i64 %10, 1000000
  store i64 %11, ptr %4, align 8, !tbaa !33
  %12 = getelementptr inbounds nuw %struct.timespec, ptr %2, i32 0, i32 1
  %13 = load i64, ptr %12, align 8, !tbaa !138
  %14 = mul nsw i64 %13, 1000000
  %15 = sdiv i64 %14, 1000000000
  %16 = load i64, ptr %4, align 8, !tbaa !33
  %17 = add nsw i64 %16, %15
  store i64 %17, ptr %4, align 8, !tbaa !33
  %18 = load i64, ptr %4, align 8, !tbaa !33
  store i64 %18, ptr %1, align 8
  store i32 1, ptr %3, align 4
  call void @llvm.lifetime.end.p0(i64 8, ptr %4) #9
  br label %19

19:                                               ; preds = %8, %7
  call void @llvm.lifetime.end.p0(i64 16, ptr %2) #9
  %20 = load i64, ptr %1, align 8
  ret i64 %20
}

; Function Attrs: nounwind uwtable
define i32 @Dau_DsdDecomposeSingleVar(ptr noundef %0, ptr noundef %1, ptr noundef %2, i32 noundef %3) #0 {
  %5 = alloca ptr, align 8
  %6 = alloca ptr, align 8
  %7 = alloca ptr, align 8
  %8 = alloca i32, align 4
  %9 = alloca i64, align 8
  %10 = alloca i32, align 4
  %11 = alloca i32, align 4
  store ptr %0, ptr %5, align 8, !tbaa !80
  store ptr %1, ptr %6, align 8, !tbaa !35
  store ptr %2, ptr %7, align 8, !tbaa !14
  store i32 %3, ptr %8, align 4, !tbaa !8
  call void @llvm.lifetime.start.p0(i64 8, ptr %9) #9
  %12 = call i64 @Abc_Clock()
  store i64 %12, ptr %9, align 8, !tbaa !33
  br label %13

13:                                               ; preds = %50, %4
  br label %14

14:                                               ; preds = %13
  call void @llvm.lifetime.start.p0(i64 4, ptr %10) #9
  %15 = load i32, ptr %8, align 4, !tbaa !8
  %16 = sub nsw i32 %15, 1
  store i32 %16, ptr %10, align 4, !tbaa !8
  br label %17

17:                                               ; preds = %37, %14
  %18 = load i32, ptr %10, align 4, !tbaa !8
  %19 = icmp sge i32 %18, 0
  br i1 %19, label %20, label %23

20:                                               ; preds = %17
  %21 = load i32, ptr %8, align 4, !tbaa !8
  %22 = icmp sgt i32 %21, 1
  br label %23

23:                                               ; preds = %20, %17
  %24 = phi i1 [ false, %17 ], [ %22, %20 ]
  br i1 %24, label %25, label %40

25:                                               ; preds = %23
  %26 = load ptr, ptr %5, align 8, !tbaa !80
  %27 = load ptr, ptr %6, align 8, !tbaa !35
  %28 = load ptr, ptr %7, align 8, !tbaa !14
  %29 = load i32, ptr %8, align 4, !tbaa !8
  %30 = load i32, ptr %10, align 4, !tbaa !8
  %31 = call i32 @Dau_DsdDecomposeSingleVarOne(ptr noundef %26, ptr noundef %27, ptr noundef %28, i32 noundef %29, i32 noundef %30)
  %32 = icmp ne i32 %31, 0
  br i1 %32, label %33, label %36

33:                                               ; preds = %25
  %34 = load i32, ptr %8, align 4, !tbaa !8
  %35 = add nsw i32 %34, -1
  store i32 %35, ptr %8, align 4, !tbaa !8
  br label %40

36:                                               ; preds = %25
  br label %37

37:                                               ; preds = %36
  %38 = load i32, ptr %10, align 4, !tbaa !8
  %39 = add nsw i32 %38, -1
  store i32 %39, ptr %10, align 4, !tbaa !8
  br label %17, !llvm.loop !109

40:                                               ; preds = %33, %23
  %41 = load i32, ptr %10, align 4, !tbaa !8
  %42 = icmp eq i32 %41, -1
  br i1 %42, label %46, label %43

43:                                               ; preds = %40
  %44 = load i32, ptr %8, align 4, !tbaa !8
  %45 = icmp eq i32 %44, 1
  br i1 %45, label %46, label %47

46:                                               ; preds = %43, %40
  store i32 3, ptr %11, align 4
  br label %48

47:                                               ; preds = %43
  store i32 0, ptr %11, align 4
  br label %48

48:                                               ; preds = %47, %46
  call void @llvm.lifetime.end.p0(i64 4, ptr %10) #9
  %49 = load i32, ptr %11, align 4
  switch i32 %49, label %74 [
    i32 0, label %50
    i32 3, label %51
  ]

50:                                               ; preds = %48
  br label %13

51:                                               ; preds = %48
  %52 = load i32, ptr %8, align 4, !tbaa !8
  %53 = icmp eq i32 %52, 1
  br i1 %53, label %54, label %67

54:                                               ; preds = %51
  %55 = load ptr, ptr %5, align 8, !tbaa !80
  %56 = load ptr, ptr %7, align 8, !tbaa !14
  %57 = load i32, ptr %8, align 4, !tbaa !8
  %58 = add nsw i32 %57, -1
  store i32 %58, ptr %8, align 4, !tbaa !8
  %59 = sext i32 %58 to i64
  %60 = getelementptr inbounds i32, ptr %56, i64 %59
  %61 = load i32, ptr %60, align 4, !tbaa !8
  %62 = load ptr, ptr %6, align 8, !tbaa !35
  %63 = getelementptr inbounds i64, ptr %62, i64 0
  %64 = load i64, ptr %63, align 8, !tbaa !33
  %65 = and i64 %64, 1
  %66 = trunc i64 %65 to i32
  call void @Dau_DsdWriteVar(ptr noundef %55, i32 noundef %61, i32 noundef %66)
  br label %67

67:                                               ; preds = %54, %51
  %68 = call i64 @Abc_Clock()
  %69 = load i64, ptr %9, align 8, !tbaa !33
  %70 = sub nsw i64 %68, %69
  %71 = load i64, ptr @s_Times, align 16, !tbaa !33
  %72 = add nsw i64 %71, %70
  store i64 %72, ptr @s_Times, align 16, !tbaa !33
  %73 = load i32, ptr %8, align 4, !tbaa !8
  store i32 1, ptr %11, align 4
  call void @llvm.lifetime.end.p0(i64 8, ptr %9) #9
  ret i32 %73

74:                                               ; preds = %48
  unreachable
}